target datalayout = "e-m:e-p270:32:32-p271:32:32-p272:64:64-i64:64-i128:128-f80:128-n8:16:32:64-S128"
target triple = "x86_64-pc-linux-gnu"

@hf_scsi_control = hidden global i32 0, align 4
@hf_scsi_add_cdblen = internal global i32 0, align 4
@hf_scsi_svcaction = internal global i32 0, align 4

; Function Attrs: nounwind uwtable
define internal void @dissect_scsi_varlencdb(ptr noundef %0, ptr noundef %1, ptr noundef %2, i32 noundef %3, i32 noundef %4, i32 noundef %5, i32 noundef %6, ptr noundef %7) #0 {
  %9 = alloca ptr, align 8
  %10 = alloca ptr, align 8
  %11 = alloca ptr, align 8
  %12 = alloca i32, align 4
  %13 = alloca i32, align 4
  %14 = alloca i32, align 4
  %15 = alloca i32, align 4
  %16 = alloca ptr, align 8
  store ptr %0, ptr %9, align 8
  store ptr %1, ptr %10, align 8
  store ptr %2, ptr %11, align 8
  store i32 %3, ptr %12, align 4
  store i32 %4, ptr %13, align 4
  store i32 %5, ptr %14, align 4
  store i32 %6, ptr %15, align 4
  store ptr %7, ptr %16, align 8
  %17 = load ptr, ptr %11, align 8
  %18 = icmp ne ptr %17, null
  br i1 %18, label %20, label %19

19:                                               ; preds = %8
  br label %44

20:                                               ; preds = %8
  %21 = load i32, ptr %13, align 4
  %22 = icmp ne i32 %21, 0
  br i1 %22, label %23, label %44

23:                                               ; preds = %20
  %24 = load i32, ptr %14, align 4
  %25 = icmp ne i32 %24, 0
  br i1 %25, label %26, label %44

26:                                               ; preds = %23
  %27 = load ptr, ptr %11, align 8
  %28 = load i32, ptr @hf_scsi_control, align 4
  %29 = load ptr, ptr %9, align 8
  %30 = load i32, ptr %12, align 4
  %31 = call ptr @proto_tree_add_item(ptr noundef %27, i32 noundef %28, ptr noundef %29, i32 noundef %30, i32 noundef 1, i32 noundef 0)
  %32 = load ptr, ptr %11, align 8
  %33 = load i32, ptr @hf_scsi_add_cdblen, align 4
  %34 = load ptr, ptr %9, align 8
  %35 = load i32, ptr %12, align 4
  %36 = add i32 %35, 6
  %37 = call ptr @proto_tree_add_item(ptr noundef %32, i32 noundef %33, ptr noundef %34, i32 noundef %36, i32 noundef 1, i32 noundef 0)
  %38 = load ptr, ptr %11, align 8
  %39 = load i32, ptr @hf_scsi_svcaction, align 4
  %40 = load ptr, ptr %9, align 8
  %41 = load i32, ptr %12, align 4
  %42 = add i32 %41, 7
  %43 = call ptr @proto_tree_add_item(ptr noundef %38, i32 noundef %39, ptr noundef %40, i32 noundef %42, i32 noundef 2, i32 noundef 0)
  br label %44

44:                                               ; preds = %26, %23, %20, %19
  ret void
}