; Function Attrs: nounwind uwtable
define internal void @dissect_scsi_varlencdb(ptr noundef %0, ptr readnone captures(none) %1, ptr noundef %2, i32 noundef %3, i32 noundef %4, i32 noundef %5, i32 %6, ptr readnone captures(none) %7) #0 {
  %9 = icmp ne ptr %2, null
  %10 = icmp ne i32 %4, 0
  %or.cond = and i1 %9, %10
  %11 = icmp ne i32 %5, 0
  %or.cond3 = and i1 %or.cond, %11
  br i1 %or.cond3, label %12, label %21

12:                                               ; preds = %8
  %13 = load i32, ptr @hf_scsi_control, align 4
  %14 = tail call ptr @proto_tree_add_item(ptr noundef nonnull %2, i32 noundef %13, ptr noundef %0, i32 noundef %3, i32 noundef 1, i32 noundef 0) #10
  %15 = load i32, ptr @hf_scsi_add_cdblen, align 4
  %16 = add i32 %3, 6
  %17 = tail call ptr @proto_tree_add_item(ptr noundef nonnull %2, i32 noundef %15, ptr noundef %0, i32 noundef %16, i32 noundef 1, i32 noundef 0) #10
  %18 = load i32, ptr @hf_scsi_svcaction, align 4
  %19 = add i32 %3, 7
  %20 = tail call ptr @proto_tree_add_item(ptr noundef nonnull %2, i32 noundef %18, ptr noundef %0, i32 noundef %19, i32 noundef 2, i32 noundef 0) #10
  br label %21

21:                                               ; preds = %8, %12
  ret void
}